; Function Attrs: mustprogress uwtable
define noundef nonnull align 8 dereferenceable(16) ptr @_ZN2cv4gapi4onnx8PyParams17cfgSessionOptionsERKSt3mapINSt7__cxx1112basic_stringIcSt11char_traitsIcESaIcEEES9_St4lessIS9_ESaISt4pairIKS9_S9_EEE(ptr noundef nonnull readonly returned align 8 dereferenceable(16) %0, ptr noundef nonnull align 8 dereferenceable(48) %1) local_unnamed_addr #3 align 2 {
  %3 = load ptr, ptr %0, align 8, !tbaa !6
  %4 = getelementptr inbounds nuw i8, ptr %3, i64 440
  %5 = getelementptr inbounds nuw i8, ptr %1, i64 24
  %6 = load ptr, ptr %5, align 8, !tbaa !94
  %7 = getelementptr inbounds nuw i8, ptr %1, i64 8
  tail call void @_ZNSt3mapINSt7__cxx1112basic_stringIcSt11char_traitsIcESaIcEEES5_St4lessIS5_ESaISt4pairIKS5_S5_EEE6insertISt23_Rb_tree_const_iteratorISA_EEEvT_SG_(ptr noundef nonnull align 8 dereferenceable(48) %4, ptr %6, ptr nonnull %7)
  ret ptr %0
}